; Function Attrs: mustprogress uwtable
define hidden noundef zeroext i1 @_ZNK3nla4core21has_relevant_monomialEv(ptr noundef nonnull align 8 dereferenceable(4736) %0) local_unnamed_addr #4 align 2 {
  %2 = alloca i32, align 4
  %3 = getelementptr inbounds nuw i8, ptr %0, i64 4544
  %.val = load ptr, ptr %3, align 8, !tbaa !293
  %4 = icmp eq ptr %.val, null
  br i1 %4, label %"_Z6any_ofIN3nla7emonicsEZNKS0_4core21has_relevant_monomialEvE3$_0EbRKT_RKT0_.exit", label %_ZNK3nla7emonics3endEv.exit.i

_ZNK3nla7emonics3endEv.exit.i:                    ; preds = %1
  %5 = getelementptr inbounds i8, ptr %.val, i64 -4
  %6 = load i32, ptr %5, align 4, !tbaa !249
  %7 = zext i32 %6 to i64
  %8 = getelementptr inbounds nuw %"class.nla::monic", ptr %.val, i64 %7
  %9 = getelementptr inbounds nuw i8, ptr %0, i64 240
  %.not1.not.i = icmp eq i32 %6, 0
  br i1 %.not1.not.i, label %"_Z6any_ofIN3nla7emonicsEZNKS0_4core21has_relevant_monomialEvE3$_0EbRKT_RKT0_.exit", label %.lr.ph.i

.lr.ph.i:                                         ; preds = %_ZNK3nla7emonics3endEv.exit.i
  %10 = getelementptr inbounds nuw i8, ptr %0, i64 224
  %11 = getelementptr inbounds nuw i8, ptr %0, i64 248
  br label %14

12:                                               ; preds = %"_ZZNK3nla4core21has_relevant_monomialEvENK3$_0clINS_5monicEEEDaRKT_.exit.i"
  %13 = getelementptr inbounds nuw i8, ptr %.0132.i, i64 40
  %.not.not.i = icmp eq ptr %13, %8
  br i1 %.not.not.i, label %"_Z6any_ofIN3nla7emonicsEZNKS0_4core21has_relevant_monomialEvE3$_0EbRKT_RKT0_.exit", label %14

14:                                               ; preds = %12, %.lr.ph.i
  %.0132.i = phi ptr [ %.val, %.lr.ph.i ], [ %13, %12 ]
  %15 = load ptr, ptr %9, align 8, !tbaa !220
  %.not.i.i.not.i.i.i = icmp eq ptr %15, null
  br i1 %.not.i.i.not.i.i.i, label %"_Z6any_ofIN3nla7emonicsEZNKS0_4core21has_relevant_monomialEvE3$_0EbRKT_RKT0_.exit", label %"_ZZNK3nla4core21has_relevant_monomialEvENK3$_0clINS_5monicEEEDaRKT_.exit.i"

"_ZZNK3nla4core21has_relevant_monomialEvENK3$_0clINS_5monicEEEDaRKT_.exit.i": ; preds = %14
  %.013.val.i = load i32, ptr %.0132.i, align 8, !tbaa !305
  call void @llvm.lifetime.start.p0(i64 4, ptr nonnull %2)
  store i32 %.013.val.i, ptr %2, align 4, !tbaa !249
  %16 = load ptr, ptr %11, align 8, !tbaa !502
  %17 = call noundef zeroext i1 %16(ptr noundef nonnull align 8 dereferenceable(32) %10, ptr noundef nonnull align 4 dereferenceable(4) %2)
  call void @llvm.lifetime.end.p0(i64 4, ptr nonnull %2)
  br i1 %17, label %"_Z6any_ofIN3nla7emonicsEZNKS0_4core21has_relevant_monomialEvE3$_0EbRKT_RKT0_.exit", label %12

"_Z6any_ofIN3nla7emonicsEZNKS0_4core21has_relevant_monomialEvE3$_0EbRKT_RKT0_.exit": ; preds = %12, %14, %"_ZZNK3nla4core21has_relevant_monomialEvENK3$_0clINS_5monicEEEDaRKT_.exit.i", %1, %_ZNK3nla7emonics3endEv.exit.i
  %.not.lcssa.i = phi i1 [ false, %_ZNK3nla7emonics3endEv.exit.i ], [ false, %1 ], [ true, %"_ZZNK3nla4core21has_relevant_monomialEvENK3$_0clINS_5monicEEEDaRKT_.exit.i" ], [ false, %12 ], [ true, %14 ]
  ret i1 %.not.lcssa.i
}